target datalayout = "e-m:e-p270:32:32-p271:32:32-p272:64:64-i64:64-i128:128-f80:128-n8:16:32:64-S128"
target triple = "x86_64-pc-linux-gnu"

; Function Attrs: nounwind uwtable
define hidden ptr @Curl_copy_header_value(ptr noundef %0) #0 {
  %2 = alloca ptr, align 8
  %3 = alloca ptr, align 8
  %4 = alloca ptr, align 8
  %5 = alloca ptr, align 8
  %6 = alloca i64, align 8
  %7 = alloca i32, align 4
  store ptr %0, ptr %3, align 8, !tbaa !82
  call void @llvm.lifetime.start.p0(i64 8, ptr %4) #7
  call void @llvm.lifetime.start.p0(i64 8, ptr %5) #7
  call void @llvm.lifetime.start.p0(i64 8, ptr %6) #7
  br label %8

8:                                                ; preds = %20, %1
  %9 = load ptr, ptr %3, align 8, !tbaa !82
  %10 = load i8, ptr %9, align 1, !tbaa !100
  %11 = sext i8 %10 to i32
  %12 = icmp ne i32 %11, 0
  br i1 %12, label %13, label %18

13:                                               ; preds = %8
  %14 = load ptr, ptr %3, align 8, !tbaa !82
  %15 = load i8, ptr %14, align 1, !tbaa !100
  %16 = sext i8 %15 to i32
  %17 = icmp ne i32 %16, 58
  br label %18

18:                                               ; preds = %13, %8
  %19 = phi i1 [ false, %8 ], [ %17, %13 ]
  br i1 %19, label %20, label %23

20:                                               ; preds = %18
  %21 = load ptr, ptr %3, align 8, !tbaa !82
  %22 = getelementptr inbounds nuw i8, ptr %21, i32 1
  store ptr %22, ptr %3, align 8, !tbaa !82
  br label %8, !llvm.loop !149

23:                                               ; preds = %18
  %24 = load ptr, ptr %3, align 8, !tbaa !82
  %25 = load i8, ptr %24, align 1, !tbaa !100
  %26 = icmp ne i8 %25, 0
  br i1 %26, label %27, label %30

27:                                               ; preds = %23
  %28 = load ptr, ptr %3, align 8, !tbaa !82
  %29 = getelementptr inbounds nuw i8, ptr %28, i32 1
  store ptr %29, ptr %3, align 8, !tbaa !82
  br label %30

30:                                               ; preds = %27, %23
  %31 = load ptr, ptr %3, align 8, !tbaa !82
  store ptr %31, ptr %4, align 8, !tbaa !82
  br label %32

32:                                               ; preds = %63, %30
  %33 = load ptr, ptr %4, align 8, !tbaa !82
  %34 = load i8, ptr %33, align 1, !tbaa !100
  %35 = sext i8 %34 to i32
  %36 = icmp ne i32 %35, 0
  br i1 %36, label %37, label %61

37:                                               ; preds = %32
  %38 = load ptr, ptr %4, align 8, !tbaa !82
  %39 = load i8, ptr %38, align 1, !tbaa !100
  %40 = sext i8 %39 to i32
  %41 = icmp eq i32 %40, 32
  br i1 %41, label %59, label %42

42:                                               ; preds = %37
  %43 = load ptr, ptr %4, align 8, !tbaa !82
  %44 = load i8, ptr %43, align 1, !tbaa !100
  %45 = sext i8 %44 to i32
  %46 = icmp eq i32 %45, 9
  br i1 %46, label %59, label %47

47:                                               ; preds = %42
  %48 = load ptr, ptr %4, align 8, !tbaa !82
  %49 = load i8, ptr %48, align 1, !tbaa !100
  %50 = sext i8 %49 to i32
  %51 = icmp sge i32 %50, 10
  br i1 %51, label %52, label %57

52:                                               ; preds = %47
  %53 = load ptr, ptr %4, align 8, !tbaa !82
  %54 = load i8, ptr %53, align 1, !tbaa !100
  %55 = sext i8 %54 to i32
  %56 = icmp sle i32 %55, 13
  br label %57

57:                                               ; preds = %52, %47
  %58 = phi i1 [ false, %47 ], [ %56, %52 ]
  br label %59

59:                                               ; preds = %57, %42, %37
  %60 = phi i1 [ true, %42 ], [ true, %37 ], [ %58, %57 ]
  br label %61

61:                                               ; preds = %59, %32
  %62 = phi i1 [ false, %32 ], [ %60, %59 ]
  br i1 %62, label %63, label %66

63:                                               ; preds = %61
  %64 = load ptr, ptr %4, align 8, !tbaa !82
  %65 = getelementptr inbounds nuw i8, ptr %64, i32 1
  store ptr %65, ptr %4, align 8, !tbaa !82
  br label %32, !llvm.loop !150

66:                                               ; preds = %61
  %67 = load ptr, ptr %4, align 8, !tbaa !82
  %68 = call ptr @strchr(ptr noundef %67, i32 noundef 13) #8
  store ptr %68, ptr %5, align 8, !tbaa !82
  %69 = load ptr, ptr %5, align 8, !tbaa !82
  %70 = icmp ne ptr %69, null
  br i1 %70, label %74, label %71

71:                                               ; preds = %66
  %72 = load ptr, ptr %4, align 8, !tbaa !82
  %73 = call ptr @strchr(ptr noundef %72, i32 noundef 10) #8
  store ptr %73, ptr %5, align 8, !tbaa !82
  br label %74

74:                                               ; preds = %71, %66
  %75 = load ptr, ptr %5, align 8, !tbaa !82
  %76 = icmp ne ptr %75, null
  br i1 %76, label %80, label %77

77:                                               ; preds = %74
  %78 = load ptr, ptr %4, align 8, !tbaa !82
  %79 = call ptr @strchr(ptr noundef %78, i32 noundef 0) #8
  store ptr %79, ptr %5, align 8, !tbaa !82
  br label %80

80:                                               ; preds = %77, %74
  %81 = load ptr, ptr %5, align 8, !tbaa !82
  %82 = icmp ne ptr %81, null
  br i1 %82, label %84, label %83

83:                                               ; preds = %80
  store ptr null, ptr %2, align 8
  store i32 1, ptr %7, align 4
  br label %128

84:                                               ; preds = %80
  br label %85

85:                                               ; preds = %115, %84
  %86 = load ptr, ptr %5, align 8, !tbaa !82
  %87 = load ptr, ptr %4, align 8, !tbaa !82
  %88 = icmp ugt ptr %86, %87
  br i1 %88, label %89, label %113

89:                                               ; preds = %85
  %90 = load ptr, ptr %5, align 8, !tbaa !82
  %91 = load i8, ptr %90, align 1, !tbaa !100
  %92 = sext i8 %91 to i32
  %93 = icmp eq i32 %92, 32
  br i1 %93, label %111, label %94

94:                                               ; preds = %89
  %95 = load ptr, ptr %5, align 8, !tbaa !82
  %96 = load i8, ptr %95, align 1, !tbaa !100
  %97 = sext i8 %96 to i32
  %98 = icmp eq i32 %97, 9
  br i1 %98, label %111, label %99

99:                                               ; preds = %94
  %100 = load ptr, ptr %5, align 8, !tbaa !82
  %101 = load i8, ptr %100, align 1, !tbaa !100
  %102 = sext i8 %101 to i32
  %103 = icmp sge i32 %102, 10
  br i1 %103, label %104, label %109

104:                                              ; preds = %99
  %105 = load ptr, ptr %5, align 8, !tbaa !82
  %106 = load i8, ptr %105, align 1, !tbaa !100
  %107 = sext i8 %106 to i32
  %108 = icmp sle i32 %107, 13
  br label %109

109:                                              ; preds = %104, %99
  %110 = phi i1 [ false, %99 ], [ %108, %104 ]
  br label %111

111:                                              ; preds = %109, %94, %89
  %112 = phi i1 [ true, %94 ], [ true, %89 ], [ %110, %109 ]
  br label %113

113:                                              ; preds = %111, %85
  %114 = phi i1 [ false, %85 ], [ %112, %111 ]
  br i1 %114, label %115, label %118

115:                                              ; preds = %113
  %116 = load ptr, ptr %5, align 8, !tbaa !82
  %117 = getelementptr inbounds i8, ptr %116, i32 -1
  store ptr %117, ptr %5, align 8, !tbaa !82
  br label %85, !llvm.loop !151

118:                                              ; preds = %113
  %119 = load ptr, ptr %5, align 8, !tbaa !82
  %120 = load ptr, ptr %4, align 8, !tbaa !82
  %121 = ptrtoint ptr %119 to i64
  %122 = ptrtoint ptr %120 to i64
  %123 = sub i64 %121, %122
  %124 = add nsw i64 %123, 1
  store i64 %124, ptr %6, align 8, !tbaa !119
  %125 = load ptr, ptr %4, align 8, !tbaa !82
  %126 = load i64, ptr %6, align 8, !tbaa !119
  %127 = call ptr @Curl_memdup0(ptr noundef %125, i64 noundef %126)
  store ptr %127, ptr %2, align 8
  store i32 1, ptr %7, align 4
  br label %128

128:                                              ; preds = %118, %83
  call void @llvm.lifetime.end.p0(i64 8, ptr %6) #7
  call void @llvm.lifetime.end.p0(i64 8, ptr %5) #7
  call void @llvm.lifetime.end.p0(i64 8, ptr %4) #7
  %129 = load ptr, ptr %2, align 8
  ret ptr %129
}