; Function Attrs: nounwind uwtable
define hidden ptr @Curl_copy_header_value(ptr noundef %0) local_unnamed_addr #0 {
  br label %2

2:                                                ; preds = %4, %1
  %.039 = phi ptr [ %0, %1 ], [ %5, %4 ]
  %3 = load i8, ptr %.039, align 1, !tbaa !98
  switch i8 %3, label %4 [
    i8 0, label %.critedge
    i8 58, label %.critedge
  ]

4:                                                ; preds = %2
  %5 = getelementptr inbounds nuw i8, ptr %.039, i64 1
  br label %2, !llvm.loop !143

.critedge:                                        ; preds = %2, %2
  %.not46 = icmp ne i8 %3, 0
  %spec.select.idx = zext i1 %.not46 to i64
  %spec.select = getelementptr inbounds nuw i8, ptr %.039, i64 %spec.select.idx
  br label %6

6:                                                ; preds = %.critedge4, %.critedge
  %.038 = phi ptr [ %spec.select, %.critedge ], [ %10, %.critedge4 ]
  %7 = load i8, ptr %.038, align 1, !tbaa !98
  switch i8 %7, label %8 [
    i8 0, label %.critedge2
    i8 32, label %.critedge4
    i8 9, label %.critedge4
  ]

8:                                                ; preds = %6
  %9 = add i8 %7, -10
  %or.cond = icmp ult i8 %9, 4
  br i1 %or.cond, label %.critedge4, label %.critedge2

.critedge4:                                       ; preds = %8, %6, %6
  %10 = getelementptr inbounds nuw i8, ptr %.038, i64 1
  br label %6, !llvm.loop !144

.critedge2:                                       ; preds = %6, %8
  %11 = tail call ptr @strchr(ptr noundef nonnull dereferenceable(1) %.038, i32 noundef 13) #12
  %.not48 = icmp eq ptr %11, null
  br i1 %.not48, label %12, label %.thread

12:                                               ; preds = %.critedge2
  %13 = tail call ptr @strchr(ptr noundef nonnull dereferenceable(1) %.038, i32 noundef 10) #12
  %.not49 = icmp eq ptr %13, null
  br i1 %.not49, label %14, label %.thread

14:                                               ; preds = %12
  %strlen = tail call i64 @strlen(ptr nonnull dereferenceable(1) %.038)
  %strchr = getelementptr inbounds i8, ptr %.038, i64 %strlen
  br label %.thread

.thread:                                          ; preds = %.critedge2, %14, %12
  %.1 = phi ptr [ %13, %12 ], [ %strchr, %14 ], [ %11, %.critedge2 ]
  %15 = icmp ugt ptr %.1, %.038
  br i1 %15, label %.lr.ph, label %._crit_edge

.lr.ph:                                           ; preds = %.thread, %.critedge8
  %.254 = phi ptr [ %19, %.critedge8 ], [ %.1, %.thread ]
  %16 = load i8, ptr %.254, align 1, !tbaa !98
  switch i8 %16, label %17 [
    i8 32, label %.critedge8
    i8 9, label %.critedge8
  ]

17:                                               ; preds = %.lr.ph
  %18 = add i8 %16, -10
  %or.cond51 = icmp ult i8 %18, 4
  br i1 %or.cond51, label %.critedge8, label %._crit_edge

.critedge8:                                       ; preds = %17, %.lr.ph, %.lr.ph
  %19 = getelementptr inbounds i8, ptr %.254, i64 -1
  %20 = icmp ugt ptr %19, %.038
  br i1 %20, label %.lr.ph, label %._crit_edge, !llvm.loop !145

._crit_edge:                                      ; preds = %.critedge8, %17, %.thread
  %.2.lcssa = phi ptr [ %.1, %.thread ], [ %.254, %17 ], [ %19, %.critedge8 ]
  %21 = ptrtoint ptr %.2.lcssa to i64
  %22 = ptrtoint ptr %.038 to i64
  %reass.sub = sub i64 %21, %22
  %23 = add i64 %reass.sub, 1
  %24 = tail call ptr @Curl_memdup0(ptr noundef nonnull %.038, i64 noundef %23) #11
  ret ptr %24
}